(dp1
S'OriginalConfig'
p2
ccopy_reg
_reconstructor
p3
(cWMCore.Configuration
Configuration
p4
c__builtin__
object
p5
NtRp6
(dp7
S'Site'
p8
g3
(cWMCore.Configuration
ConfigSection
p9
g5
NtRp10
(dp11
S'_internal_skipChecks'
p12
I00
sS'_internal_documentation'
p13
S''
sS'_internal_settings'
p14
c__builtin__
set
p15
((lp16
S'storageSite'
p17
atRp18
sS'_internal_name'
p19
g8
sS'_internal_docstrings'
p20
(dp21
sS'_internal_children'
p22
g15
((ltRp23
sg17
S'T3_KR_KNU'
p24
sS'_internal_parent_ref'
p25
NsbsS'_internal_sections'
p26
(lp27
S'General'
p28
aS'JobType'
p29
aS'Data'
p30
ag8
aS'User'
p31
aS'Debug'
p32
asg28
g3
(g9
g5
NtRp33
(dp34
g12
I00
sg13
S''
sg14
g15
((lp35
S'transferOutputs'
p36
aS'workArea'
p37
atRp38
sg19
g28
sg20
(dp39
sg36
I01
sg22
g15
((ltRp40
sg25
Nsg37
S'crab/MC'
p41
sbsS'_internal_webapps'
p42
(lp43
sg31
g3
(g9
g5
NtRp44
(dp45
g12
I00
sg13
S''
sg14
g15
((ltRp46
sg19
g31
sg20
(dp47
sg22
g15
((ltRp48
sg25
NsbsS'_internal_components'
p49
(lp50
sg32
g3
(g9
g5
NtRp51
(dp52
g12
I00
sg13
S''
sg14
g15
((ltRp53
sg19
g32
sg20
(dp54
sg22
g15
((ltRp55
sg25
Nsbsg30
g3
(g9
g5
NtRp56
(dp57
S'inputDataset'
p58
S'/SingleNeutrino/RunIISummer19UL18MiniAODv2-FlatPU0to70_106X_upgrade2018_realistic_v16_L1v1-v1/MINIAODSIM'
p59
sg12
I00
sS'splitting'
p60
S'EventAwareLumiBased'
p61
sS'unitsPerJob'
p62
I25000
sg13
S''
sg14
g15
((lp63
g58
aS'publication'
p64
ag62
ag60
aS'inputDBS'
p65
aS'outLFNDirBase'
p66
atRp67
sg19
g30
sg65
S'global'
p68
sg20
(dp69
sg22
g15
((ltRp70
sg66
S'/store/user/sha/JERNosieStudy/'
p71
sg25
Nsg64
I00
sbsg29
g3
(g9
g5
NtRp72
(dp73
S'outputFiles'
p74
(lp75
S'Offset_MC.root'
p76
asg12
I00
sg13
S''
sg14
g15
((lp77
S'psetName'
p78
aS'pluginName'
p79
aS'inputFiles'
p80
ag74
aS'allowUndistributedCMSSW'
p81
atRp82
sg19
g29
sg20
(dp83
sg79
S'Analysis'
p84
sg22
g15
((ltRp85
sg81
I01
sg78
S'run_miniaod_ul18_mc.py'
p86
sg25
Nsg80
(lp87
S'pileup_2016.txt'
p88
aS'pileup_2017.txt'
p89
aS'pileup_2018.txt'
p90
asbsbsS'voGroup'
p91
S''
sS'Server'
p92
S'cmsweb.cern.ch'
p93
sS'instance'
p94
S'prod'
p95
sS'RequestName'
p96
V210512_024231:sha_crab_20210512_114213
p97
sS'voRole'
p98
S'NULL'
p99
sS'Port'
p100
S''
s.