ccopy_reg
_reconstructor
p0
(cFWCore.ParameterSet.Config
Process
p1
c__builtin__
object
p2
Ntp3
Rp4
(dp5
S'MessageLogger'
p6
g0
(cFWCore.ParameterSet.Modules
Service
p7
g2
Ntp8
Rp9
(dp10
S'_isFrozen'
p11
I00
sS'suppressInfo'
p12
g0
(cFWCore.ParameterSet.Types
vstring
p13
c__builtin__
list
p14
(lp15
tp16
Rp17
(dp18
g11
I00
sS'_ParameterTypeBase__isTracked'
p19
I00
sS'_isModified'
p20
I00
sS'_nPerLine'
p21
I1
sbsS'suppressDebug'
p22
g0
(g13
g14
(lp23
tp24
Rp25
(dp26
g11
I00
sg19
I00
sg20
I00
sg21
I1
sbsS'cout'
p27
g0
(cFWCore.ParameterSet.Types
PSet
p28
g2
Ntp29
Rp30
(dp31
g11
I00
sg19
I00
sS'placeholder'
p32
g0
(cFWCore.ParameterSet.Types
bool
p33
g2
Ntp34
Rp35
(dp36
g11
I00
sg19
I00
sS'_value'
p37
I01
sg20
I00
sbsg20
I00
sS'_Parameterizable__parameterNames'
p38
(lp39
g32
asbsS'_lineNumber'
p40
I14
sS'debugModules'
p41
g0
(g13
g14
(lp42
tp43
Rp44
(dp45
g11
I00
sg19
I00
sg20
I00
sg21
I1
sbsS'_TypedParameterizable__type'
p46
g6
sS'fwkJobReports'
p47
g0
(g13
g14
(lp48
S'FrameworkJobReport'
p49
atp50
Rp51
(dp52
g11
I00
sg19
I00
sg20
I00
sg21
I1
sbsg38
(lp53
g12
aS'debugs'
p54
ag22
ag27
aS'cerr_stats'
p55
aS'warnings'
p56
aS'default'
p57
aS'statistics'
p58
aS'cerr'
p59
ag49
aS'suppressWarning'
p60
aS'errors'
p61
aS'destinations'
p62
ag41
aS'infos'
p63
aS'categories'
p64
ag47
asg58
g0
(g13
g14
(lp65
g55
atp66
Rp67
(dp68
g11
I00
sg19
I00
sg20
I00
sg21
I1
sbsS'_filename'
p69
S'/cvmfs/cms.cern.ch/slc7_amd64_gcc820/cms/cmssw-patch/CMSSW_10_6_8_patch1/python/FWCore/ParameterSet/Modules.py'
p70
sg62
g0
(g13
g14
(lp71
g27
ag59
atp72
Rp73
(dp74
g11
I00
sg19
I00
sg20
I01
sg21
I1
sbsg54
g0
(g28
g2
Ntp75
Rp76
(dp77
g11
I00
sg19
I00
sg32
g0
(g33
g2
Ntp78
Rp79
(dp80
g11
I00
sg19
I00
sg37
I01
sg20
I00
sbsg20
I00
sg38
(lp81
g32
asbsg56
g0
(g28
g2
Ntp82
Rp83
(dp84
g11
I00
sg19
I00
sg32
g0
(g33
g2
Ntp85
Rp86
(dp87
g11
I00
sg19
I00
sg37
I01
sg20
I00
sbsg20
I00
sg38
(lp88
g32
asbsg61
g0
(g28
g2
Ntp89
Rp90
(dp91
g11
I00
sg19
I00
sg32
g0
(g33
g2
Ntp92
Rp93
(dp94
g11
I00
sg19
I00
sg37
I01
sg20
I00
sbsg20
I00
sg38
(lp95
g32
asbsg49
g0
(g28
g2
Ntp96
Rp97
(dp98
g11
I00
sg19
I00
sg20
I00
sg57
g0
(g28
g2
Ntp99
Rp100
(dp101
g11
I00
sg19
I00
sS'limit'
p102
g0
(cFWCore.ParameterSet.Types
int32
p103
g2
Ntp104
Rp105
(dp106
g11
I00
sg19
I00
sg37
I0
sg20
I00
sbsg20
I00
sg38
(lp107
g102
asbsS'FwkJob'
p108
g0
(g28
g2
Ntp109
Rp110
(dp111
g11
I00
sg19
I00
sg20
I00
sg102
g0
(g103
g2
Ntp112
Rp113
(dp114
g11
I00
sg19
I00
sg37
I10000000
sg20
I00
sbsg38
(lp115
S'optionalPSet'
p116
ag102
asg116
g0
(g33
g2
Ntp117
Rp118
(dp119
g11
I00
sg19
I00
sg37
I01
sg20
I00
sbsbsg38
(lp120
g57
ag116
ag108
asg116
g0
(g33
g2
Ntp121
Rp122
(dp123
g11
I00
sg19
I00
sg37
I01
sg20
I00
sbsbsg60
g0
(g13
g14
(lp124
tp125
Rp126
(dp127
g11
I00
sg19
I00
sg20
I00
sg21
I1
sbsg63
g0
(g28
g2
Ntp128
Rp129
(dp130
g11
I00
sg19
I00
sg20
I00
sS'Root_NoDictionary'
p131
g0
(g28
g2
Ntp132
Rp133
(dp134
g11
I00
sg19
I00
sg20
I00
sg102
g0
(g103
g2
Ntp135
Rp136
(dp137
g11
I00
sg19
I00
sg37
I0
sg20
I00
sbsg38
(lp138
g116
ag102
asg116
g0
(g33
g2
Ntp139
Rp140
(dp141
g11
I00
sg19
I00
sg37
I01
sg20
I00
sbsbsg38
(lp142
g116
ag131
ag32
asg116
g0
(g33
g2
Ntp143
Rp144
(dp145
g11
I00
sg19
I00
sg37
I01
sg20
I00
sbsg32
g0
(g33
g2
Ntp146
Rp147
(dp148
g11
I00
sg19
I00
sg37
I01
sg20
I00
sbsbsg64
g0
(g13
g14
(lp149
g108
aS'FwkReport'
p150
aS'FwkSummary'
p151
ag131
atp152
Rp153
(dp154
g11
I00
sg19
I00
sg20
I00
sg21
I1
sbsg20
I01
sg55
g0
(g28
g2
Ntp155
Rp156
(dp157
g11
I00
sg19
I00
sg20
I00
sg116
g0
(g33
g2
Ntp158
Rp159
(dp160
g11
I00
sg19
I00
sg37
I01
sg20
I00
sbsg38
(lp161
S'threshold'
p162
aS'output'
p163
ag116
asg162
g0
(cFWCore.ParameterSet.Types
string
p164
g2
Ntp165
Rp166
(dp167
g11
I00
sg19
I00
sg37
S'WARNING'
p168
sg20
I00
sbsg163
g0
(g164
g2
Ntp169
Rp170
(dp171
g11
I00
sg19
I00
sg37
g59
sg20
I00
sbsbsg57
g0
(g28
g2
Ntp172
Rp173
(dp174
g11
I00
sg19
I00
sg20
I00
sg38
(lp175
sbsS'_inProcess'
p176
I01
sg59
g0
(g28
g2
Ntp177
Rp178
(dp179
g11
I00
sg19
I00
sS'noTimeStamps'
p180
g0
(g33
g2
Ntp181
Rp182
(dp183
g11
I00
sg19
I00
sg37
I00
sg20
I00
sbsg150
g0
(g28
g2
Ntp184
Rp185
(dp186
g11
I00
sg19
I00
sg20
I01
sS'reportEvery'
p187
g0
(g103
g2
Ntp188
Rp189
(dp190
g11
I00
sg19
I00
sg37
I1000
sg20
I01
sbsg102
g0
(g103
g2
Ntp191
Rp192
(dp193
g11
I00
sg19
I00
sg37
I10000000
sg20
I00
sbsg38
(lp194
g187
ag116
ag102
asg116
g0
(g33
g2
Ntp195
Rp196
(dp197
g11
I00
sg19
I00
sg37
I01
sg20
I00
sbsbsg20
I00
sg57
g0
(g28
g2
Ntp198
Rp199
(dp200
g11
I00
sg19
I00
sg102
g0
(g103
g2
Ntp201
Rp202
(dp203
g11
I00
sg19
I00
sg37
I10000000
sg20
I00
sbsg20
I00
sg38
(lp204
g102
asbsg131
g0
(g28
g2
Ntp205
Rp206
(dp207
g11
I00
sg19
I00
sg20
I00
sg102
g0
(g103
g2
Ntp208
Rp209
(dp210
g11
I00
sg19
I00
sg37
I0
sg20
I00
sbsg38
(lp211
g116
ag102
asg116
g0
(g33
g2
Ntp212
Rp213
(dp214
g11
I00
sg19
I00
sg37
I01
sg20
I00
sbsbsS'INFO'
p215
g0
(g28
g2
Ntp216
Rp217
(dp218
g11
I00
sg19
I00
sg102
g0
(g103
g2
Ntp219
Rp220
(dp221
g11
I00
sg19
I00
sg37
I0
sg20
I00
sbsg20
I00
sg38
(lp222
g102
asbsg116
g0
(g33
g2
Ntp223
Rp224
(dp225
g11
I00
sg19
I00
sg37
I01
sg20
I00
sbsg108
g0
(g28
g2
Ntp226
Rp227
(dp228
g11
I00
sg19
I00
sg20
I00
sg102
g0
(g103
g2
Ntp229
Rp230
(dp231
g11
I00
sg19
I00
sg37
I0
sg20
I00
sbsg38
(lp232
g116
ag102
asg116
g0
(g33
g2
Ntp233
Rp234
(dp235
g11
I00
sg19
I00
sg37
I01
sg20
I00
sbsbsg151
g0
(g28
g2
Ntp236
Rp237
(dp238
g11
I00
sg19
I00
sg20
I00
sg187
g0
(g103
g2
Ntp239
Rp240
(dp241
g11
I00
sg19
I00
sg37
I1
sg20
I00
sbsg102
g0
(g103
g2
Ntp242
Rp243
(dp244
g11
I00
sg19
I00
sg37
I10000000
sg20
I00
sbsg38
(lp245
g187
ag116
ag102
asg116
g0
(g33
g2
Ntp246
Rp247
(dp248
g11
I00
sg19
I00
sg37
I01
sg20
I00
sbsbsg38
(lp249
g215
ag180
ag150
ag57
ag131
ag162
ag108
ag151
ag116
asg162
g0
(g164
g2
Ntp250
Rp251
(dp252
g11
I00
sg19
I00
sg37
g215
sg20
I00
sbsbsbsS'_Process__sequences'
p253
(dp254
S'myseq'
p255
g0
(cFWCore.ParameterSet.SequenceTypes
Sequence
p256
g2
Ntp257
Rp258
(dp259
g11
I00
sS'_seq'
p260
g0
(cFWCore.ParameterSet.SequenceTypes
_SequenceCollection
p261
g2
Ntp262
Rp263
(dp264
S'_collection'
p265
(lp266
g0
(cFWCore.ParameterSet.Modules
EDAnalyzer
p267
g2
Ntp268
Rp269
(dp270
g11
I00
sS'genTag'
p271
g0
(cFWCore.ParameterSet.Types
InputTag
p272
g2
Ntp273
Rp274
(dp275
g11
I00
sg19
I01
sg20
I00
sS'_InputTag__moduleLabel'
p276
S'packedGenParticles'
p277
sS'_InputTag__processName'
p278
S''
p279
sS'_InputTag__productInstance'
p280
g279
sbsS'Generator'
p281
g0
(g272
g2
Ntp282
Rp283
(dp284
g11
I00
sg19
I01
sg20
I00
sg276
S'generator'
p285
sg278
g279
sg280
g279
sbsg40
I94
sS'muTag'
p286
g0
(g272
g2
Ntp287
Rp288
(dp289
g11
I00
sg19
I01
sg20
I00
sg276
S'slimmedAddPileupInfo'
p290
sg278
g279
sg280
g279
sbsS'pvTag'
p291
g0
(g272
g2
Ntp292
Rp293
(dp294
g11
I00
sg19
I01
sg20
I00
sg276
S'offlineSlimmedPrimaryVertices'
p295
sg278
g279
sg280
g279
sbsS'writeCands'
p296
g0
(g33
g2
Ntp297
Rp298
(dp299
g11
I00
sg19
I01
sg37
I00
sg20
I00
sbsg46
S'OffsetTreeMaker'
p300
sg38
(lp301
g271
aS'rhoTag'
p302
aS'GenParticles'
p303
ag281
aS'rhoCentralCaloTag'
p304
aS'rhoCentralTag'
p305
aS'pfTag'
p306
aS'writeParticles'
p307
aS'pfJetTag'
p308
aS'rhoCCTag'
p309
aS'RootFileName'
p310
aS'rhoC0Tag'
p311
ag286
aS'isMC'
p312
aS'puFileName'
p313
aS'numSkip'
p314
ag291
ag296
asg69
S'/d0/scratch/sha/Analyses/ServiceWork/JERC/NoiseTerm_v1/MakeNtuple_v1/CMSSW_10_6_8_patch1/src/NosiseTest/OffsetTreeMaker/run_miniaod_ul18_mc.py'
p315
sg306
g0
(g272
g2
Ntp316
Rp317
(dp318
g11
I00
sg19
I01
sg20
I00
sg276
S'packedPFCandidates'
p319
sg278
g279
sg280
g279
sbsg307
g0
(g33
g2
Ntp320
Rp321
(dp322
g11
I00
sg19
I01
sg37
I00
sg20
I00
sbsg313
g0
(g164
g2
Ntp323
Rp324
(dp325
g11
I00
sg19
I01
sg37
S'pileup_2018.txt'
p326
sg20
I00
sbsg302
g0
(g272
g2
Ntp327
Rp328
(dp329
g11
I00
sg19
I01
sg20
I00
sg276
S'fixedGridRhoFastjetAll'
p330
sg278
g279
sg280
g279
sbsS'_Labelable__label'
p331
S'pf'
p332
sg311
g0
(g272
g2
Ntp333
Rp334
(dp335
g11
I00
sg19
I01
sg20
I00
sg276
S'fixedGridRhoFastjetCentralNeutral'
p336
sg278
g279
sg280
g279
sbsg20
I00
sg304
g0
(g272
g2
Ntp337
Rp338
(dp339
g11
I00
sg19
I01
sg20
I00
sg276
S'fixedGridRhoFastjetCentralCalo'
p340
sg278
g279
sg280
g279
sbsg305
g0
(g272
g2
Ntp341
Rp342
(dp343
g11
I00
sg19
I01
sg20
I00
sg276
S'fixedGridRhoFastjetCentral'
p344
sg278
g279
sg280
g279
sbsg308
g0
(g272
g2
Ntp345
Rp346
(dp347
g11
I00
sg19
I01
sg20
I00
sg276
S'slimmedJets'
p348
sg278
g279
sg280
g279
sbsg310
g0
(g164
g2
Ntp349
Rp350
(dp351
g11
I00
sg19
I01
sg37
S'Offset_MC.root'
p352
sg20
I00
sbsg312
g0
(g33
g2
Ntp353
Rp354
(dp355
g11
I00
sg19
I01
sg37
I01
sg20
I00
sbsg309
g0
(g272
g2
Ntp356
Rp357
(dp358
g11
I00
sg19
I01
sg20
I00
sg276
S'fixedGridRhoFastjetCentralChargedPileUp'
p359
sg278
g279
sg280
g279
sbsg314
g0
(g103
g2
Ntp360
Rp361
(dp362
g11
I00
sg19
I01
sg37
I1
sg20
I00
sbsg303
g0
(g272
g2
Ntp363
Rp364
(dp365
g11
I00
sg19
I01
sg20
I00
sg276
S'prunedGenParticles'
p366
sg278
g279
sg280
g279
sbsbasbsg331
g255
sg20
I00
sS'_tasks'
p367
g0
(cFWCore.ParameterSet.OrderedSet
OrderedSet
p368
g2
Ntp369
Rp370
(dp371
S'map'
p372
(dp373
sS'end'
p374
(lp375
Nag375
ag375
asbsbssS'_Process__services'
p376
(dp377
g6
g9
ssS'_Process__source'
p378
g0
(cFWCore.ParameterSet.Modules
Source
p379
g2
Ntp380
Rp381
(dp382
g38
(lp383
S'fileNames'
p384
asg11
I00
sg20
I00
sg40
I196
sg69
g70
sg384
g0
(g13
g14
(lp385
S'file:/d0/scratch/sha/Analyses/ServiceWork/JERC/MiniAOD/SingleNeutrino_UL18FlatPU0to70/006AF999-107E-554D-8EEB-064BE2F2F05C.root'
p386
atp387
Rp388
(dp389
g11
I00
sg19
I00
sg20
I00
sg21
I1
sbsg46
S'PoolSource'
p390
sbsS'StripCPEfromTrackAngleESProducer'
p391
g0
(cFWCore.ParameterSet.Modules
ESProducer
p392
g2
Ntp393
Rp394
(dp395
g38
(lp396
S'ComponentType'
p397
aS'ComponentName'
p398
aS'parameters'
p399
asg11
I00
sg20
I01
sg399
g0
(g28
g2
Ntp400
Rp401
(dp402
g11
I00
sg19
I01
sS'maxChgOneMIP'
p403
g0
(cFWCore.ParameterSet.Types
double
p404
g2
Ntp405
Rp406
(dp407
g11
I00
sg19
I01
sg37
F6000.0
sg20
I00
sbsS'mLC_P2'
p408
g0
(g404
g2
Ntp409
Rp410
(dp411
g11
I00
sg19
I01
sg37
F0.3
sg20
I00
sbsS'mLC_P1'
p412
g0
(g404
g2
Ntp413
Rp414
(dp415
g11
I00
sg19
I01
sg37
F0.618
sg20
I00
sbsS'mLC_P0'
p416
g0
(g404
g2
Ntp417
Rp418
(dp419
g11
I00
sg19
I01
sg37
F-0.326
sg20
I00
sbsS'useLegacyError'
p420
g0
(g33
g2
Ntp421
Rp422
(dp423
g11
I00
sg19
I01
sg37
I00
sg20
I00
sbsS'mTIB_P1'
p424
g0
(g404
g2
Ntp425
Rp426
(dp427
g11
I00
sg19
I01
sg37
F0.202
sg20
I00
sbsS'mTEC_P1'
p428
g0
(g404
g2
Ntp429
Rp430
(dp431
g11
I00
sg19
I01
sg37
F0.471
sg20
I00
sbsS'mTEC_P0'
p432
g0
(g404
g2
Ntp433
Rp434
(dp435
g11
I00
sg19
I01
sg37
F-1.885
sg20
I00
sbsS'mTOB_P0'
p436
g0
(g404
g2
Ntp437
Rp438
(dp439
g11
I00
sg19
I01
sg37
F-1.026
sg20
I00
sbsS'mTOB_P1'
p440
g0
(g404
g2
Ntp441
Rp442
(dp443
g11
I00
sg19
I01
sg37
F0.253
sg20
I00
sbsS'mTIB_P0'
p444
g0
(g404
g2
Ntp445
Rp446
(dp447
g11
I00
sg19
I01
sg37
F-0.742
sg20
I00
sbsg38
(lp448
g403
ag408
ag412
ag416
ag420
ag428
ag432
ag436
ag440
ag444
ag424
aS'mTID_P0'
p449
aS'mTID_P1'
p450
asg449
g0
(g404
g2
Ntp451
Rp452
(dp453
g11
I00
sg19
I01
sg37
F-1.427
sg20
I00
sbsg450
g0
(g404
g2
Ntp454
Rp455
(dp456
g11
I00
sg19
I01
sg37
F0.433
sg20
I00
sbsg20
I00
sbsg40
I4
sg398
g0
(g164
g2
Ntp457
Rp458
(dp459
g11
I00
sg19
I01
sg37
S'StripCPEfromTrackAngle'
p460
sg20
I00
sbsg397
g0
(g164
g2
Ntp461
Rp462
(dp463
g11
I00
sg19
I01
sg37
g460
sg20
I00
sbsg69
S'/cvmfs/cms.cern.ch/slc7_amd64_gcc820/cms/cmssw-patch/CMSSW_10_6_8_patch1/python/RecoLocalTracker/SiStripRecHitConverter/StripCPEfromTrackAngle_cfi.py'
p464
sg331
g391
sg46
S'StripCPEESProducer'
p465
sbsS'_Process__aliases'
p466
(dp467
sS'siStripBackPlaneCorrectionDepESProducer'
p468
g0
(g392
g2
Ntp469
Rp470
(dp471
g38
(lp472
S'LatencyRecord'
p473
aS'BackPlaneCorrectionDeconvMode'
p474
aS'BackPlaneCorrectionPeakMode'
p475
asg11
I00
sg20
I00
sg40
I56
sg69
g70
sg473
g0
(g28
g2
Ntp476
Rp477
(dp478
g11
I00
sg19
I01
sg20
I00
sS'label'
p479
g0
(g164
g2
Ntp480
Rp481
(dp482
g11
I00
sg19
I00
sg37
g279
sg20
I00
sbsS'record'
p483
g0
(g164
g2
Ntp484
Rp485
(dp486
g11
I00
sg19
I01
sg37
S'SiStripLatencyRcd'
p487
sg20
I00
sbsg38
(lp488
g483
ag479
asbsg475
g0
(g28
g2
Ntp489
Rp490
(dp491
g11
I00
sg19
I01
sg20
I00
sg479
g0
(g164
g2
Ntp492
Rp493
(dp494
g11
I00
sg19
I00
sg37
S'peak'
p495
sg20
I00
sbsg483
g0
(g164
g2
Ntp496
Rp497
(dp498
g11
I00
sg19
I01
sg37
S'SiStripBackPlaneCorrectionRcd'
p499
sg20
I00
sbsg38
(lp500
g483
ag479
asbsg331
g468
sg474
g0
(g28
g2
Ntp501
Rp502
(dp503
g11
I00
sg19
I01
sg20
I00
sg479
g0
(g164
g2
Ntp504
Rp505
(dp506
g11
I00
sg19
I00
sg37
S'deconvolution'
p507
sg20
I00
sbsg483
g0
(g164
g2
Ntp508
Rp509
(dp510
g11
I00
sg19
I01
sg37
g499
sg20
I00
sbsg38
(lp511
g483
ag479
asbsg46
S'SiStripBackPlaneCorrectionDepESProducer'
p512
sbsS'HFRecalParameterBlock'
p513
g0
(g28
g2
Ntp514
Rp515
(dp516
g11
I00
sg19
I01
sg20
I00
sS'HFdepthTwoParameterA'
p517
g0
(cFWCore.ParameterSet.Types
vdouble
p518
g14
(lp519
F0.002861
aF0.004168
aF0.0064
aF0.008388
aF0.011601
aF0.014425
aF0.018633
aF0.023232
aF0.028274
aF0.035447
aF0.051579
aF0.086593
atp520
Rp521
(dp522
g11
I00
sg19
I01
sg20
I00
sbsS'HFdepthOneParameterA'
p523
g0
(g518
g14
(lp524
F0.004123
aF0.00602
aF0.008201
aF0.010489
aF0.013379
aF0.016997
aF0.021464
aF0.027371
aF0.034195
aF0.044807
aF0.058939
aF0.125497
atp525
Rp526
(dp527
g11
I00
sg19
I01
sg20
I00
sbsS'HFdepthOneParameterB'
p528
g0
(g518
g14
(lp529
F-4e-06
aF-2e-06
aF0.0
aF4e-06
aF1.5e-05
aF2.6e-05
aF6.3e-05
aF8.4e-05
aF0.00016
aF0.000107
aF0.000425
aF0.000209
atp530
Rp531
(dp532
g11
I00
sg19
I01
sg20
I00
sbsS'HFdepthTwoParameterB'
p533
g0
(g518
g14
(lp534
F-2e-06
aF-0.0
aF-7e-06
aF-6e-06
aF-2e-06
aF1e-06
aF1.9e-05
aF3.1e-05
aF6.7e-05
aF1.2e-05
aF0.000157
aF-3e-06
atp535
Rp536
(dp537
g11
I00
sg19
I01
sg20
I00
sbsg38
(lp538
g523
ag528
ag533
ag517
asg331
g513
sbsS'stripCPEESProducer'
p539
g0
(g392
g2
Ntp540
Rp541
(dp542
g38
(lp543
g397
ag398
ag399
asg11
I00
sg20
I00
sg399
g0
(g28
g2
Ntp544
Rp545
(dp546
g11
I00
sg19
I01
sg20
I00
sg38
(lp547
sbsg40
I56
sg398
g0
(g164
g2
Ntp548
Rp549
(dp550
g11
I00
sg19
I01
sg37
S'stripCPE'
p551
sg20
I00
sbsg397
g0
(g164
g2
Ntp552
Rp553
(dp554
g11
I00
sg19
I01
sg37
S'SimpleStripCPE'
p555
sg20
I00
sbsg69
g70
sg331
g539
sg46
g465
sbsS'EcalLaserCorrectionService'
p556
g0
(g392
g2
Ntp557
Rp558
(dp559
g38
(lp560
sg11
I00
sg20
I00
sg40
I56
sg69
g70
sg331
g556
sg46
g556
sbsS'_Process__psets'
p561
(dp562
S'maxEvents'
p563
g0
(g28
g2
Ntp564
Rp565
(dp566
g11
I00
sg19
I00
sg20
I00
sg38
(lp567
S'input'
p568
asg331
g563
sg568
g0
(g103
g2
Ntp569
Rp570
(dp571
g11
I00
sg19
I00
sg37
I-1
sg20
I00
sbsbsg513
g515
sS'options'
p572
g0
(g28
g2
Ntp573
Rp574
(dp575
g11
I00
sg19
I00
sg20
I01
sS'wantSummary'
p576
g0
(g33
g2
Ntp577
Rp578
(dp579
g11
I00
sg19
I00
sg37
I01
sg20
I00
sbsg38
(lp580
g576
aS'allowUnscheduled'
p581
asg331
g572
sg581
g0
(g33
g2
Ntp582
Rp583
(dp584
g11
I00
sg19
I00
sg37
I01
sg20
I00
sbsbssS'hcal_db_producer'
p585
g0
(g392
g2
Ntp586
Rp587
(dp588
g38
(lp589
S'file'
p590
aS'dump'
p591
asg11
I00
sg20
I00
sg591
g0
(g13
g14
(lp592
g279
atp593
Rp594
(dp595
g11
I00
sg19
I00
sg20
I00
sg21
I1
sbsg40
I56
sg69
g70
sg590
g0
(g164
g2
Ntp596
Rp597
(dp598
g11
I00
sg19
I00
sg37
g279
sg20
I00
sbsg331
g585
sg46
S'HcalDbProducer'
p599
sbsS'p'
p600
g0
(cFWCore.ParameterSet.SequenceTypes
Path
p601
g2
Ntp602
Rp603
(dp604
g11
I00
sg260
g0
(g261
g2
Ntp605
Rp606
(dp607
g265
(lp608
g258
asbsg331
g600
sg20
I00
sg367
g0
(g368
g2
Ntp609
Rp610
(dp611
g372
(dp612
sg374
(lp613
Nag613
ag613
asbsbsS'_Process__essources'
p614
(dp615
S'es_hardcode'
p616
g0
(cFWCore.ParameterSet.Modules
ESSource
p617
g2
Ntp618
Rp619
(dp620
g11
I00
sg40
I172
sS'useHEUpgrade'
p621
g0
(g33
g2
Ntp622
Rp623
(dp624
g11
I00
sg19
I01
sg37
I00
sg20
I00
sbsS'HBRecalibration'
p625
g0
(g33
g2
Ntp626
Rp627
(dp628
g11
I00
sg19
I01
sg37
I00
sg20
I00
sbsS'useLayer0Weight'
p629
g0
(g33
g2
Ntp630
Rp631
(dp632
g11
I00
sg19
I01
sg37
I00
sg20
I00
sbsS'HEmeanenergies'
p633
g0
(cFWCore.ParameterSet.Types
FileInPath
p634
g2
Ntp635
Rp636
(dp637
g11
I00
sg19
I01
sg37
S'CalibCalorimetry/HcalPlugins/data/meanenergiesHE.txt'
p638
sg20
I00
sbsg513
g515
sS'heUpgrade'
p639
g0
(g28
g2
Ntp640
Rp641
(dp642
g11
I00
sg19
I01
sS'qieType'
p643
g0
(g103
g2
Ntp644
Rp645
(dp646
g11
I00
sg19
I01
sg37
I2
sg20
I00
sbsg20
I00
sS'pedestalWidth'
p647
g0
(g404
g2
Ntp648
Rp649
(dp650
g11
I00
sg19
I01
sg37
F1.5
sg20
I00
sbsS'recoShape'
p651
g0
(g103
g2
Ntp652
Rp653
(dp654
g11
I00
sg19
I01
sg37
I206
sg20
I00
sbsS'zsThreshold'
p655
g0
(g103
g2
Ntp656
Rp657
(dp658
g11
I00
sg19
I01
sg37
I16
sg20
I00
sbsS'darkCurrent'
p659
g0
(g518
g14
(lp660
F0.01
aF0.015
atp661
Rp662
(dp663
g11
I00
sg19
I01
sg20
I00
sbsS'qieOffset'
p664
g0
(g518
g14
(lp665
F0.0
aF0.0
aF0.0
aF0.0
atp666
Rp667
(dp668
g11
I00
sg19
I01
sg20
I00
sbsS'qieSlope'
p669
g0
(g518
g14
(lp670
F0.05376
aF0.05376
aF0.05376
aF0.05376
atp671
Rp672
(dp673
g11
I00
sg19
I01
sg20
I00
sbsS'radiationDamage'
p674
g0
(g28
g2
Ntp675
Rp676
(dp677
g11
I00
sg19
I01
sS'temperatureNew'
p678
g0
(g404
g2
Ntp679
Rp680
(dp681
g11
I00
sg19
I01
sg37
I5
sg20
I00
sbsg20
I00
sS'depVsNeutrons'
p682
g0
(g518
g14
(lp683
F5.543e-10
aF8.012e-10
atp684
Rp685
(dp686
g11
I00
sg19
I01
sg20
I00
sbsS'temperatureBase'
p687
g0
(g404
g2
Ntp688
Rp689
(dp690
g11
I00
sg19
I01
sg37
I20
sg20
I00
sbsS'depVsTemp'
p691
g0
(g404
g2
Ntp692
Rp693
(dp694
g11
I00
sg19
I01
sg37
F0.0631
sg20
I00
sbsS'intlumiOffset'
p695
g0
(g404
g2
Ntp696
Rp697
(dp698
g11
I00
sg19
I01
sg37
I75
sg20
I00
sbsg38
(lp699
g678
ag682
ag687
ag691
ag695
aS'intlumiToNeutrons'
p700
asg700
g0
(g404
g2
Ntp701
Rp702
(dp703
g11
I00
sg19
I01
sg37
F29200000.0
sg20
I00
sbsbsS'doRadiationDamage'
p704
g0
(g33
g2
Ntp705
Rp706
(dp707
g11
I00
sg19
I01
sg37
I01
sg20
I00
sbsg38
(lp708
g643
ag647
ag651
ag655
aS'photoelectronsToAnalog'
p709
ag664
ag669
ag674
ag704
ag659
aS'pedestal'
p710
aS'mcShape'
p711
aS'gainWidth'
p712
aS'gain'
p713
asg709
g0
(g404
g2
Ntp714
Rp715
(dp716
g11
I00
sg19
I01
sg37
F40.0
sg20
I00
sbsg710
g0
(g404
g2
Ntp717
Rp718
(dp719
g11
I00
sg19
I01
sg37
F17.3
sg20
I00
sbsg711
g0
(g103
g2
Ntp720
Rp721
(dp722
g11
I00
sg19
I01
sg37
I206
sg20
I00
sbsg712
g0
(g518
g14
(lp723
I0
atp724
Rp725
(dp726
g11
I00
sg19
I01
sg20
I00
sbsg713
g0
(g518
g14
(lp727
F0.0006252
atp728
Rp729
(dp730
g11
I00
sg19
I01
sg20
I00
sbsbsg38
(lp731
S'toGet'
p732
ag625
ag629
ag633
ag513
ag639
aS'useIeta18depth1'
p733
aS'killHE'
p734
aS'useHBUpgrade'
p735
aS'hbUpgrade'
p736
aS'testHEPlan1'
p737
aS'iLumi'
p738
aS'testHFQIE10'
p739
aS'HBmeanenergies'
p740
ag621
aS'GainWidthsForTrigPrims'
p741
aS'HBreCalibCutoff'
p742
aS'HFRecalibration'
p743
aS'ho'
p744
aS'hb'
p745
aS'hf'
p746
aS'he'
p747
aS'HERecalibration'
p748
aS'useHFUpgrade'
p749
aS'HEreCalibCutoff'
p750
aS'SiPMCharacteristics'
p751
aS'useHOUpgrade'
p752
aS'hfUpgrade'
p753
asg69
S'/cvmfs/cms.cern.ch/slc7_amd64_gcc820/cms/cmssw-patch/CMSSW_10_6_8_patch1/python/CalibCalorimetry/HcalPlugins/Hcal_Conditions_forGlobalTag_cff.py'
p754
sg733
g0
(g33
g2
Ntp755
Rp756
(dp757
g11
I00
sg19
I01
sg37
I01
sg20
I00
sbsg734
g0
(g33
g2
Ntp758
Rp759
(dp760
g11
I00
sg19
I01
sg37
I00
sg20
I00
sbsg735
g0
(g33
g2
Ntp761
Rp762
(dp763
g11
I00
sg19
I01
sg37
I00
sg20
I00
sbsg736
g0
(g28
g2
Ntp764
Rp765
(dp766
g11
I00
sg19
I01
sg643
g0
(g103
g2
Ntp767
Rp768
(dp769
g11
I00
sg19
I01
sg37
I2
sg20
I00
sbsg20
I00
sg647
g0
(g404
g2
Ntp770
Rp771
(dp772
g11
I00
sg19
I01
sg37
F1.5
sg20
I00
sbsg651
g0
(g103
g2
Ntp773
Rp774
(dp775
g11
I00
sg19
I01
sg37
I206
sg20
I00
sbsg655
g0
(g103
g2
Ntp776
Rp777
(dp778
g11
I00
sg19
I01
sg37
I16
sg20
I00
sbsg659
g0
(g518
g14
(lp779
F0.01
aF0.015
atp780
Rp781
(dp782
g11
I00
sg19
I01
sg20
I00
sbsg664
g0
(g518
g14
(lp783
F0.0
aF0.0
aF0.0
aF0.0
atp784
Rp785
(dp786
g11
I00
sg19
I01
sg20
I00
sbsg669
g0
(g518
g14
(lp787
F0.05376
aF0.05376
aF0.05376
aF0.05376
atp788
Rp789
(dp790
g11
I00
sg19
I01
sg20
I00
sbsg674
g0
(g28
g2
Ntp791
Rp792
(dp793
g11
I00
sg19
I01
sg678
g0
(g404
g2
Ntp794
Rp795
(dp796
g11
I00
sg19
I01
sg37
I-5
sg20
I00
sbsg20
I00
sg682
g0
(g518
g14
(lp797
F5.543e-10
aF8.012e-10
atp798
Rp799
(dp800
g11
I00
sg19
I01
sg20
I00
sbsg687
g0
(g404
g2
Ntp801
Rp802
(dp803
g11
I00
sg19
I01
sg37
I20
sg20
I00
sbsg691
g0
(g404
g2
Ntp804
Rp805
(dp806
g11
I00
sg19
I01
sg37
F0.0631
sg20
I00
sbsg695
g0
(g404
g2
Ntp807
Rp808
(dp809
g11
I00
sg19
I01
sg37
I150
sg20
I00
sbsg38
(lp810
g678
ag682
ag687
ag691
ag695
ag700
asg700
g0
(g404
g2
Ntp811
Rp812
(dp813
g11
I00
sg19
I01
sg37
F367000000.0
sg20
I00
sbsbsg704
g0
(g33
g2
Ntp814
Rp815
(dp816
g11
I00
sg19
I01
sg37
I01
sg20
I00
sbsg38
(lp817
g643
ag647
ag651
ag655
ag709
ag664
ag669
ag674
ag704
ag659
ag710
ag711
ag712
ag713
asg709
g0
(g404
g2
Ntp818
Rp819
(dp820
g11
I00
sg19
I01
sg37
F40.0
sg20
I00
sbsg710
g0
(g404
g2
Ntp821
Rp822
(dp823
g11
I00
sg19
I01
sg37
F17.3
sg20
I00
sbsg711
g0
(g103
g2
Ntp824
Rp825
(dp826
g11
I00
sg19
I01
sg37
I206
sg20
I00
sbsg712
g0
(g518
g14
(lp827
I0
atp828
Rp829
(dp830
g11
I00
sg19
I01
sg20
I00
sbsg713
g0
(g518
g14
(lp831
F0.0006252
atp832
Rp833
(dp834
g11
I00
sg19
I01
sg20
I00
sbsbsg46
S'HcalHardcodeCalibrations'
p835
sg737
g0
(g33
g2
Ntp836
Rp837
(dp838
g11
I00
sg19
I01
sg37
I00
sg20
I00
sbsg738
g0
(g404
g2
Ntp839
Rp840
(dp841
g11
I00
sg19
I01
sg37
F-1.0
sg20
I00
sbsg739
g0
(g33
g2
Ntp842
Rp843
(dp844
g11
I00
sg19
I01
sg37
I00
sg20
I00
sbsg740
g0
(g634
g2
Ntp845
Rp846
(dp847
g11
I00
sg19
I01
sg37
S'CalibCalorimetry/HcalPlugins/data/meanenergiesHB.txt'
p848
sg20
I00
sbsg732
g0
(g13
g14
(lp849
S'GainWidths'
p850
atp851
Rp852
(dp853
g11
I00
sg19
I00
sg20
I00
sg21
I1
sbsg741
g0
(g33
g2
Ntp854
Rp855
(dp856
g11
I00
sg19
I01
sg37
I00
sg20
I00
sbsg742
g0
(g404
g2
Ntp857
Rp858
(dp859
g11
I00
sg19
I01
sg37
F20.0
sg20
I00
sbsg743
g0
(g33
g2
Ntp860
Rp861
(dp862
g11
I00
sg19
I01
sg37
I00
sg20
I00
sbsg744
g0
(g28
g2
Ntp863
Rp864
(dp865
g11
I00
sg19
I01
sg643
g0
(g103
g2
Ntp866
Rp867
(dp868
g11
I00
sg19
I01
sg37
I0
sg20
I00
sbsg20
I00
sg647
g0
(g404
g2
Ntp869
Rp870
(dp871
g11
I00
sg19
I01
sg37
F0.6285
sg20
I00
sbsg651
g0
(g103
g2
Ntp872
Rp873
(dp874
g11
I00
sg19
I01
sg37
I201
sg20
I00
sbsg655
g0
(g103
g2
Ntp875
Rp876
(dp877
g11
I00
sg19
I01
sg37
I24
sg20
I00
sbsg659
g0
(g518
g14
(lp878
F0.0
atp879
Rp880
(dp881
g11
I00
sg19
I01
sg20
I00
sbsg664
g0
(g518
g14
(lp882
F-0.44
aF1.4
aF7.1
aF38.5
atp883
Rp884
(dp885
g11
I00
sg19
I01
sg20
I00
sbsg669
g0
(g518
g14
(lp886
F0.907
aF0.915
aF0.92
aF0.921
atp887
Rp888
(dp889
g11
I00
sg19
I01
sg20
I00
sbsg713
g0
(g518
g14
(lp890
F0.006
aF0.0087
atp891
Rp892
(dp893
g11
I00
sg19
I01
sg20
I00
sbsg704
g0
(g33
g2
Ntp894
Rp895
(dp896
g11
I00
sg19
I01
sg37
I00
sg20
I00
sbsg38
(lp897
g643
ag647
ag651
ag655
ag709
ag664
ag669
ag713
ag704
ag659
ag710
ag711
ag712
asg709
g0
(g404
g2
Ntp898
Rp899
(dp900
g11
I00
sg19
I01
sg37
F4.0
sg20
I00
sbsg710
g0
(g404
g2
Ntp901
Rp902
(dp903
g11
I00
sg19
I01
sg37
F12.06
sg20
I00
sbsg711
g0
(g103
g2
Ntp904
Rp905
(dp906
g11
I00
sg19
I01
sg37
I201
sg20
I00
sbsg712
g0
(g518
g14
(lp907
F0.0
aF0.0
atp908
Rp909
(dp910
g11
I00
sg19
I01
sg20
I00
sbsbsg745
g0
(g28
g2
Ntp911
Rp912
(dp913
g11
I00
sg19
I01
sg643
g0
(g103
g2
Ntp914
Rp915
(dp916
g11
I00
sg19
I01
sg37
I0
sg20
I00
sbsg20
I00
sg647
g0
(g404
g2
Ntp917
Rp918
(dp919
g11
I00
sg19
I01
sg37
F0.809
sg20
I00
sbsg651
g0
(g103
g2
Ntp920
Rp921
(dp922
g11
I00
sg19
I01
sg37
I105
sg20
I00
sbsg655
g0
(g103
g2
Ntp923
Rp924
(dp925
g11
I00
sg19
I01
sg37
I8
sg20
I00
sbsg659
g0
(g518
g14
(lp926
F0.0
atp927
Rp928
(dp929
g11
I00
sg19
I01
sg20
I00
sbsg664
g0
(g518
g14
(lp930
F-0.49
aF1.8
aF7.2
aF37.9
atp931
Rp932
(dp933
g11
I00
sg19
I01
sg20
I00
sbsg669
g0
(g518
g14
(lp934
F0.912
aF0.917
aF0.922
aF0.923
atp935
Rp936
(dp937
g11
I00
sg19
I01
sg20
I00
sbsg713
g0
(g518
g14
(lp938
F0.19
atp939
Rp940
(dp941
g11
I00
sg19
I01
sg20
I00
sbsg704
g0
(g33
g2
Ntp942
Rp943
(dp944
g11
I00
sg19
I01
sg37
I00
sg20
I00
sbsg38
(lp945
g643
ag647
ag651
ag655
ag709
ag664
ag669
ag713
ag704
ag659
ag710
ag711
ag712
asg709
g0
(g404
g2
Ntp946
Rp947
(dp948
g11
I00
sg19
I01
sg37
F0.3305
sg20
I00
sbsg710
g0
(g404
g2
Ntp949
Rp950
(dp951
g11
I00
sg19
I01
sg37
F3.285
sg20
I00
sbsg711
g0
(g103
g2
Ntp952
Rp953
(dp954
g11
I00
sg19
I01
sg37
I125
sg20
I00
sbsg712
g0
(g518
g14
(lp955
F0.0
atp956
Rp957
(dp958
g11
I00
sg19
I01
sg20
I00
sbsbsg746
g0
(g28
g2
Ntp959
Rp960
(dp961
g11
I00
sg19
I01
sg643
g0
(g103
g2
Ntp962
Rp963
(dp964
g11
I00
sg19
I01
sg37
I0
sg20
I00
sbsg20
I00
sg647
g0
(g404
g2
Ntp965
Rp966
(dp967
g11
I00
sg19
I01
sg37
F2.516
sg20
I00
sbsg651
g0
(g103
g2
Ntp968
Rp969
(dp970
g11
I00
sg19
I01
sg37
I301
sg20
I00
sbsg655
g0
(g103
g2
Ntp971
Rp972
(dp973
g11
I00
sg19
I01
sg37
I-9999
sg20
I00
sbsg659
g0
(g518
g14
(lp974
F0.0
atp975
Rp976
(dp977
g11
I00
sg19
I01
sg20
I00
sbsg664
g0
(g518
g14
(lp978
F-0.87
aF1.4
aF7.8
aF-29.6
atp979
Rp980
(dp981
g11
I00
sg19
I01
sg20
I00
sbsg669
g0
(g518
g14
(lp982
F0.359
aF0.358
aF0.36
aF0.367
atp983
Rp984
(dp985
g11
I00
sg19
I01
sg20
I00
sbsg713
g0
(g518
g14
(lp986
F0.14
aF0.135
atp987
Rp988
(dp989
g11
I00
sg19
I01
sg20
I00
sbsg704
g0
(g33
g2
Ntp990
Rp991
(dp992
g11
I00
sg19
I01
sg37
I00
sg20
I00
sbsg38
(lp993
g643
ag647
ag651
ag655
ag709
ag664
ag669
ag713
ag704
ag659
ag710
ag711
ag712
asg709
g0
(g404
g2
Ntp994
Rp995
(dp996
g11
I00
sg19
I01
sg37
F0.0
sg20
I00
sbsg710
g0
(g404
g2
Ntp997
Rp998
(dp999
g11
I00
sg19
I01
sg37
F9.354
sg20
I00
sbsg711
g0
(g103
g2
Ntp1000
Rp1001
(dp1002
g11
I00
sg19
I01
sg37
I301
sg20
I00
sbsg712
g0
(g518
g14
(lp1003
F0.0
aF0.0
atp1004
Rp1005
(dp1006
g11
I00
sg19
I01
sg20
I00
sbsbsg747
g0
(g28
g2
Ntp1007
Rp1008
(dp1009
g11
I00
sg19
I01
sg643
g0
(g103
g2
Ntp1010
Rp1011
(dp1012
g11
I00
sg19
I01
sg37
I0
sg20
I00
sbsg20
I00
sg647
g0
(g404
g2
Ntp1013
Rp1014
(dp1015
g11
I00
sg19
I01
sg37
F0.9698
sg20
I00
sbsg651
g0
(g103
g2
Ntp1016
Rp1017
(dp1018
g11
I00
sg19
I01
sg37
I105
sg20
I00
sbsg655
g0
(g103
g2
Ntp1019
Rp1020
(dp1021
g11
I00
sg19
I01
sg37
I9
sg20
I00
sbsg659
g0
(g518
g14
(lp1022
F0.0
atp1023
Rp1024
(dp1025
g11
I00
sg19
I01
sg20
I00
sbsg664
g0
(g518
g14
(lp1026
F-0.38
aF2.0
aF7.6
aF39.6
atp1027
Rp1028
(dp1029
g11
I00
sg19
I01
sg20
I00
sbsg669
g0
(g518
g14
(lp1030
F0.912
aF0.916
aF0.92
aF0.922
atp1031
Rp1032
(dp1033
g11
I00
sg19
I01
sg20
I00
sbsg713
g0
(g518
g14
(lp1034
F0.23
atp1035
Rp1036
(dp1037
g11
I00
sg19
I01
sg20
I00
sbsg704
g0
(g33
g2
Ntp1038
Rp1039
(dp1040
g11
I00
sg19
I01
sg37
I00
sg20
I00
sbsg38
(lp1041
g643
ag647
ag651
ag655
ag709
ag664
ag669
ag713
ag704
ag659
ag710
ag711
ag712
asg709
g0
(g404
g2
Ntp1042
Rp1043
(dp1044
g11
I00
sg19
I01
sg37
F0.3305
sg20
I00
sbsg710
g0
(g404
g2
Ntp1045
Rp1046
(dp1047
g11
I00
sg19
I01
sg37
F3.163
sg20
I00
sbsg711
g0
(g103
g2
Ntp1048
Rp1049
(dp1050
g11
I00
sg19
I01
sg37
I125
sg20
I00
sbsg712
g0
(g518
g14
(lp1051
I0
atp1052
Rp1053
(dp1054
g11
I00
sg19
I01
sg20
I00
sbsbsg20
I00
sg748
g0
(g33
g2
Ntp1055
Rp1056
(dp1057
g11
I00
sg19
I01
sg37
I00
sg20
I00
sbsg749
g0
(g33
g2
Ntp1058
Rp1059
(dp1060
g11
I00
sg19
I01
sg37
I00
sg20
I00
sbsg750
g0
(g404
g2
Ntp1061
Rp1062
(dp1063
g11
I00
sg19
I01
sg37
F20.0
sg20
I00
sbsg751
g0
(cFWCore.ParameterSet.Types
VPSet
p1064
g14
(lp1065
g0
(g28
g2
Ntp1066
Rp1067
(dp1068
g11
I00
sg19
I01
sg20
I00
sS'crosstalk'
p1069
g0
(g404
g2
Ntp1070
Rp1071
(dp1072
g11
I00
sg19
I01
sg37
F0.0
sg20
I00
sbsS'nonlin1'
p1073
g0
(g404
g2
Ntp1074
Rp1075
(dp1076
g11
I00
sg19
I01
sg37
F1.0
sg20
I00
sbsS'nonlin3'
p1077
g0
(g404
g2
Ntp1078
Rp1079
(dp1080
g11
I00
sg19
I01
sg37
F0.0
sg20
I00
sbsS'nonlin2'
p1081
g0
(g404
g2
Ntp1082
Rp1083
(dp1084
g11
I00
sg19
I01
sg37
F0.0
sg20
I00
sbsg38
(lp1085
g1073
ag1077
ag1081
aS'pixels'
p1086
ag1069
asg1086
g0
(g103
g2
Ntp1087
Rp1088
(dp1089
g11
I00
sg19
I01
sg37
I36000
sg20
I00
sbsbag0
(g28
g2
Ntp1090
Rp1091
(dp1092
g11
I00
sg19
I01
sg20
I00
sg1069
g0
(g404
g2
Ntp1093
Rp1094
(dp1095
g11
I00
sg19
I01
sg37
F0.0
sg20
I00
sbsg1073
g0
(g404
g2
Ntp1096
Rp1097
(dp1098
g11
I00
sg19
I01
sg37
F1.0
sg20
I00
sbsg1077
g0
(g404
g2
Ntp1099
Rp1100
(dp1101
g11
I00
sg19
I01
sg37
F0.0
sg20
I00
sbsg1081
g0
(g404
g2
Ntp1102
Rp1103
(dp1104
g11
I00
sg19
I01
sg37
F0.0
sg20
I00
sbsg38
(lp1105
g1073
ag1077
ag1081
ag1086
ag1069
asg1086
g0
(g103
g2
Ntp1106
Rp1107
(dp1108
g11
I00
sg19
I01
sg37
I2500
sg20
I00
sbsbag0
(g28
g2
Ntp1109
Rp1110
(dp1111
g11
I00
sg19
I01
sg20
I00
sg1069
g0
(g404
g2
Ntp1112
Rp1113
(dp1114
g11
I00
sg19
I01
sg37
F0.17
sg20
I00
sbsg1073
g0
(g404
g2
Ntp1115
Rp1116
(dp1117
g11
I00
sg19
I01
sg37
F1.00985
sg20
I00
sbsg1077
g0
(g404
g2
Ntp1118
Rp1119
(dp1120
g11
I00
sg19
I01
sg37
F2.86282e-10
sg20
I00
sbsg1081
g0
(g404
g2
Ntp1121
Rp1122
(dp1123
g11
I00
sg19
I01
sg37
F7.84089e-06
sg20
I00
sbsg38
(lp1124
g1073
ag1077
ag1081
ag1086
ag1069
asg1086
g0
(g103
g2
Ntp1125
Rp1126
(dp1127
g11
I00
sg19
I01
sg37
I27370
sg20
I00
sbsbag0
(g28
g2
Ntp1128
Rp1129
(dp1130
g11
I00
sg19
I01
sg20
I00
sg1069
g0
(g404
g2
Ntp1131
Rp1132
(dp1133
g11
I00
sg19
I01
sg37
F0.196
sg20
I00
sbsg1073
g0
(g404
g2
Ntp1134
Rp1135
(dp1136
g11
I00
sg19
I01
sg37
F1.00546
sg20
I00
sbsg1077
g0
(g404
g2
Ntp1137
Rp1138
(dp1139
g11
I00
sg19
I01
sg37
F1.27011e-10
sg20
I00
sbsg1081
g0
(g404
g2
Ntp1140
Rp1141
(dp1142
g11
I00
sg19
I01
sg37
F6.40239e-06
sg20
I00
sbsg38
(lp1143
g1073
ag1077
ag1081
ag1086
ag1069
asg1086
g0
(g103
g2
Ntp1144
Rp1145
(dp1146
g11
I00
sg19
I01
sg37
I38018
sg20
I00
sbsbag0
(g28
g2
Ntp1147
Rp1148
(dp1149
g11
I00
sg19
I01
sg20
I00
sg1069
g0
(g404
g2
Ntp1150
Rp1151
(dp1152
g11
I00
sg19
I01
sg37
F0.17
sg20
I00
sbsg1073
g0
(g404
g2
Ntp1153
Rp1154
(dp1155
g11
I00
sg19
I01
sg37
F1.00985
sg20
I00
sbsg1077
g0
(g404
g2
Ntp1156
Rp1157
(dp1158
g11
I00
sg19
I01
sg37
F2.86282e-10
sg20
I00
sbsg1081
g0
(g404
g2
Ntp1159
Rp1160
(dp1161
g11
I00
sg19
I01
sg37
F7.84089e-06
sg20
I00
sbsg38
(lp1162
g1073
ag1077
ag1081
ag1086
ag1069
asg1086
g0
(g103
g2
Ntp1163
Rp1164
(dp1165
g11
I00
sg19
I01
sg37
I27370
sg20
I00
sbsbag0
(g28
g2
Ntp1166
Rp1167
(dp1168
g11
I00
sg19
I01
sg20
I00
sg1069
g0
(g404
g2
Ntp1169
Rp1170
(dp1171
g11
I00
sg19
I01
sg37
F0.196
sg20
I00
sbsg1073
g0
(g404
g2
Ntp1172
Rp1173
(dp1174
g11
I00
sg19
I01
sg37
F1.00546
sg20
I00
sbsg1077
g0
(g404
g2
Ntp1175
Rp1176
(dp1177
g11
I00
sg19
I01
sg37
F1.27011e-10
sg20
I00
sbsg1081
g0
(g404
g2
Ntp1178
Rp1179
(dp1180
g11
I00
sg19
I01
sg37
F6.40239e-06
sg20
I00
sbsg38
(lp1181
g1073
ag1077
ag1081
ag1086
ag1069
asg1086
g0
(g103
g2
Ntp1182
Rp1183
(dp1184
g11
I00
sg19
I01
sg37
I38018
sg20
I00
sbsbag0
(g28
g2
Ntp1185
Rp1186
(dp1187
g11
I00
sg19
I01
sg20
I00
sg1069
g0
(g404
g2
Ntp1188
Rp1189
(dp1190
g11
I00
sg19
I01
sg37
F0.0
sg20
I00
sbsg1073
g0
(g404
g2
Ntp1191
Rp1192
(dp1193
g11
I00
sg19
I01
sg37
F1.0
sg20
I00
sbsg1077
g0
(g404
g2
Ntp1194
Rp1195
(dp1196
g11
I00
sg19
I01
sg37
F0.0
sg20
I00
sbsg1081
g0
(g404
g2
Ntp1197
Rp1198
(dp1199
g11
I00
sg19
I01
sg37
F0.0
sg20
I00
sbsg38
(lp1200
g1073
ag1077
ag1081
ag1086
ag1069
asg1086
g0
(g103
g2
Ntp1201
Rp1202
(dp1203
g11
I00
sg19
I01
sg37
I0
sg20
I00
sbsbatp1204
Rp1205
(dp1206
g11
I00
sg19
I01
sg20
I00
sg21
I1
sbsg331
g616
sg752
g0
(g33
g2
Ntp1207
Rp1208
(dp1209
g11
I00
sg19
I01
sg37
I01
sg20
I00
sbsg753
g0
(g28
g2
Ntp1210
Rp1211
(dp1212
g11
I00
sg19
I01
sg643
g0
(g103
g2
Ntp1213
Rp1214
(dp1215
g11
I00
sg19
I01
sg37
I1
sg20
I00
sbsg20
I00
sg647
g0
(g404
g2
Ntp1216
Rp1217
(dp1218
g11
I00
sg19
I01
sg37
F3.33
sg20
I00
sbsg651
g0
(g103
g2
Ntp1219
Rp1220
(dp1221
g11
I00
sg19
I01
sg37
I301
sg20
I00
sbsg655
g0
(g103
g2
Ntp1222
Rp1223
(dp1224
g11
I00
sg19
I01
sg37
I-9999
sg20
I00
sbsg659
g0
(g518
g14
(lp1225
F0.0
atp1226
Rp1227
(dp1228
g11
I00
sg19
I01
sg20
I00
sbsg664
g0
(g518
g14
(lp1229
F0.0697
aF-0.7405
aF12.38
aF-671.9
atp1230
Rp1231
(dp1232
g11
I00
sg19
I01
sg20
I00
sbsg669
g0
(g518
g14
(lp1233
F0.297
aF0.298
aF0.298
aF0.313
atp1234
Rp1235
(dp1236
g11
I00
sg19
I01
sg20
I00
sbsg713
g0
(g518
g14
(lp1237
F0.14
aF0.135
atp1238
Rp1239
(dp1240
g11
I00
sg19
I01
sg20
I00
sbsg704
g0
(g33
g2
Ntp1241
Rp1242
(dp1243
g11
I00
sg19
I01
sg37
I00
sg20
I00
sbsg38
(lp1244
g643
ag647
ag651
ag655
ag709
ag664
ag669
ag713
ag704
ag659
ag710
ag711
ag712
asg709
g0
(g404
g2
Ntp1245
Rp1246
(dp1247
g11
I00
sg19
I01
sg37
F0.0
sg20
I00
sbsg710
g0
(g404
g2
Ntp1248
Rp1249
(dp1250
g11
I00
sg19
I01
sg37
F13.33
sg20
I00
sbsg711
g0
(g103
g2
Ntp1251
Rp1252
(dp1253
g11
I00
sg19
I01
sg37
I301
sg20
I00
sbsg712
g0
(g518
g14
(lp1254
F0.0
aF0.0
atp1255
Rp1256
(dp1257
g11
I00
sg19
I01
sg20
I00
sbsbsbsS'GlobalTag'
p1258
g0
(g617
g2
Ntp1259
Rp1260
(dp1261
g38
(lp1262
S'DBParameters'
p1263
aS'connect'
p1264
aS'globaltag'
p1265
aS'RefreshEachRun'
p1266
aS'pfnPrefix'
p1267
aS'snapshotTime'
p1268
ag732
aS'pfnPostfix'
p1269
aS'RefreshAlways'
p1270
aS'ReconnectEachRun'
p1271
aS'RefreshOpenIOVs'
p1272
aS'DumpStat'
p1273
asg11
I00
sg69
S'/cvmfs/cms.cern.ch/slc7_amd64_gcc820/cms/cmssw-patch/CMSSW_10_6_8_patch1/python/CondCore/ESSources/CondDBESSource_cfi.py'
p1274
sg20
I01
sg1265
g0
(g164
g2
Ntp1275
Rp1276
(dp1277
g11
I00
sg19
I01
sg37
S'106X_mc2017_realistic_v9'
p1278
sg20
I00
sbsg1266
g0
(g33
g2
Ntp1279
Rp1280
(dp1281
g11
I00
sg19
I00
sg37
I00
sg20
I00
sbsg1267
g0
(g164
g2
Ntp1282
Rp1283
(dp1284
g11
I00
sg19
I00
sg37
g279
sg20
I00
sbsg1268
g0
(g164
g2
Ntp1285
Rp1286
(dp1287
g11
I00
sg19
I01
sg37
g279
sg20
I00
sbsg732
g0
(g1064
g14
(lp1288
tp1289
Rp1290
(dp1291
g11
I00
sg19
I01
sg20
I00
sg21
I1
sbsg1269
g0
(g164
g2
Ntp1292
Rp1293
(dp1294
g11
I00
sg19
I00
sg37
g279
sg20
I00
sbsg1263
g0
(g28
g2
Ntp1295
Rp1296
(dp1297
g11
I00
sg19
I01
sS'authenticationPath'
p1298
g0
(g164
g2
Ntp1299
Rp1300
(dp1301
g11
I00
sg19
I00
sg37
g279
sg20
I00
sbsg20
I00
sS'messageLevel'
p1302
g0
(g103
g2
Ntp1303
Rp1304
(dp1305
g11
I00
sg19
I00
sg37
I0
sg20
I00
sbsg38
(lp1306
g1302
aS'security'
p1307
aS'authenticationSystem'
p1308
ag1298
asg1307
g0
(g164
g2
Ntp1309
Rp1310
(dp1311
g11
I00
sg19
I00
sg37
g279
sg20
I00
sbsg1308
g0
(g103
g2
Ntp1312
Rp1313
(dp1314
g11
I00
sg19
I00
sg37
I0
sg20
I00
sbsbsg1270
g0
(g33
g2
Ntp1315
Rp1316
(dp1317
g11
I00
sg19
I00
sg37
I00
sg20
I00
sbsg40
I19
sg1264
g0
(g164
g2
Ntp1318
Rp1319
(dp1320
g11
I00
sg19
I01
sg37
S'frontier://FrontierProd/CMS_CONDITIONS'
p1321
sg20
I00
sbsg1271
g0
(g33
g2
Ntp1322
Rp1323
(dp1324
g11
I00
sg19
I00
sg37
I00
sg20
I00
sbsg331
g1258
sg1272
g0
(g33
g2
Ntp1325
Rp1326
(dp1327
g11
I00
sg19
I00
sg37
I00
sg20
I00
sbsg1273
g0
(g33
g2
Ntp1328
Rp1329
(dp1330
g11
I00
sg19
I00
sg37
I00
sg20
I00
sbsg46
S'PoolDBESSource'
p1331
sbsS'HcalTimeSlewEP'
p1332
g0
(g617
g2
Ntp1333
Rp1334
(dp1335
g38
(lp1336
S'timeSlewParametersM3'
p1337
aS'timeSlewParametersM2'
p1338
aS'appendToDataLabel'
p1339
asg11
I00
sg1337
g0
(g1064
g14
(lp1340
g0
(g28
g2
Ntp1341
Rp1342
(dp1343
g11
I00
sg19
I01
sS'tspar2'
p1344
g0
(g404
g2
Ntp1345
Rp1346
(dp1347
g11
I00
sg19
I01
sg37
F0.0
sg20
I00
sbsg20
I00
sS'tspar0'
p1348
g0
(g404
g2
Ntp1349
Rp1350
(dp1351
g11
I00
sg19
I01
sg37
F12.2999
sg20
I00
sbsS'tspar1'
p1352
g0
(g404
g2
Ntp1353
Rp1354
(dp1355
g11
I00
sg19
I01
sg37
F-2.19142
sg20
I00
sbsS'tspar1_siPM'
p1356
g0
(g404
g2
Ntp1357
Rp1358
(dp1359
g11
I00
sg19
I01
sg37
F0.0
sg20
I00
sbsS'cap'
p1360
g0
(g404
g2
Ntp1361
Rp1362
(dp1363
g11
I00
sg19
I01
sg37
F6.0
sg20
I00
sbsS'tspar0_siPM'
p1364
g0
(g404
g2
Ntp1365
Rp1366
(dp1367
g11
I00
sg19
I01
sg37
F0.0
sg20
I00
sbsg38
(lp1368
g1344
ag1348
ag1352
ag1356
ag1360
ag1364
aS'tspar2_siPM'
p1369
asg1369
g0
(g404
g2
Ntp1370
Rp1371
(dp1372
g11
I00
sg19
I01
sg37
F0.0
sg20
I00
sbsbag0
(g28
g2
Ntp1373
Rp1374
(dp1375
g11
I00
sg19
I01
sg1344
g0
(g404
g2
Ntp1376
Rp1377
(dp1378
g11
I00
sg19
I01
sg37
F32.0
sg20
I00
sbsg20
I00
sg1348
g0
(g404
g2
Ntp1379
Rp1380
(dp1381
g11
I00
sg19
I01
sg37
F15.5
sg20
I00
sbsg1352
g0
(g404
g2
Ntp1382
Rp1383
(dp1384
g11
I00
sg19
I01
sg37
F-3.2
sg20
I00
sbsg1356
g0
(g404
g2
Ntp1385
Rp1386
(dp1387
g11
I00
sg19
I01
sg37
F0.0
sg20
I00
sbsg1360
g0
(g404
g2
Ntp1388
Rp1389
(dp1390
g11
I00
sg19
I01
sg37
F6.0
sg20
I00
sbsg1364
g0
(g404
g2
Ntp1391
Rp1392
(dp1393
g11
I00
sg19
I01
sg37
F0.0
sg20
I00
sbsg38
(lp1394
g1344
ag1348
ag1352
ag1356
ag1360
ag1364
ag1369
asg1369
g0
(g404
g2
Ntp1395
Rp1396
(dp1397
g11
I00
sg19
I01
sg37
F0.0
sg20
I00
sbsbag0
(g28
g2
Ntp1398
Rp1399
(dp1400
g11
I00
sg19
I01
sg1344
g0
(g404
g2
Ntp1401
Rp1402
(dp1403
g11
I00
sg19
I01
sg37
F0.0
sg20
I00
sbsg20
I00
sg1348
g0
(g404
g2
Ntp1404
Rp1405
(dp1406
g11
I00
sg19
I01
sg37
F12.2999
sg20
I00
sbsg1352
g0
(g404
g2
Ntp1407
Rp1408
(dp1409
g11
I00
sg19
I01
sg37
F-2.19142
sg20
I00
sbsg1356
g0
(g404
g2
Ntp1410
Rp1411
(dp1412
g11
I00
sg19
I01
sg37
F0.0
sg20
I00
sbsg1360
g0
(g404
g2
Ntp1413
Rp1414
(dp1415
g11
I00
sg19
I01
sg37
F6.0
sg20
I00
sbsg1364
g0
(g404
g2
Ntp1416
Rp1417
(dp1418
g11
I00
sg19
I01
sg37
F0.0
sg20
I00
sbsg38
(lp1419
g1344
ag1348
ag1352
ag1356
ag1360
ag1364
ag1369
asg1369
g0
(g404
g2
Ntp1420
Rp1421
(dp1422
g11
I00
sg19
I01
sg37
F0.0
sg20
I00
sbsbag0
(g28
g2
Ntp1423
Rp1424
(dp1425
g11
I00
sg19
I01
sg1344
g0
(g404
g2
Ntp1426
Rp1427
(dp1428
g11
I00
sg19
I01
sg37
F0.0
sg20
I00
sbsg20
I00
sg1348
g0
(g404
g2
Ntp1429
Rp1430
(dp1431
g11
I00
sg19
I01
sg37
F12.2999
sg20
I00
sbsg1352
g0
(g404
g2
Ntp1432
Rp1433
(dp1434
g11
I00
sg19
I01
sg37
F-2.19142
sg20
I00
sbsg1356
g0
(g404
g2
Ntp1435
Rp1436
(dp1437
g11
I00
sg19
I01
sg37
F0.0
sg20
I00
sbsg1360
g0
(g404
g2
Ntp1438
Rp1439
(dp1440
g11
I00
sg19
I01
sg37
F6.0
sg20
I00
sbsg1364
g0
(g404
g2
Ntp1441
Rp1442
(dp1443
g11
I00
sg19
I01
sg37
F0.0
sg20
I00
sbsg38
(lp1444
g1344
ag1348
ag1352
ag1356
ag1360
ag1364
ag1369
asg1369
g0
(g404
g2
Ntp1445
Rp1446
(dp1447
g11
I00
sg19
I01
sg37
F0.0
sg20
I00
sbsbatp1448
Rp1449
(dp1450
g11
I00
sg19
I01
sg20
I00
sg21
I1
sbsg1338
g0
(g1064
g14
(lp1451
g0
(g28
g2
Ntp1452
Rp1453
(dp1454
g11
I00
sg19
I01
sg20
I00
sS'slope'
p1455
g0
(g404
g2
Ntp1456
Rp1457
(dp1458
g11
I00
sg19
I01
sg37
F-3.178648
sg20
I00
sbsS'tmax'
p1459
g0
(g404
g2
Ntp1460
Rp1461
(dp1462
g11
I00
sg19
I01
sg37
F16.0
sg20
I00
sbsS'tzero'
p1463
g0
(g404
g2
Ntp1464
Rp1465
(dp1466
g11
I00
sg19
I01
sg37
F23.960177
sg20
I00
sbsg38
(lp1467
g1455
ag1459
ag1463
asbag0
(g28
g2
Ntp1468
Rp1469
(dp1470
g11
I00
sg19
I01
sg20
I00
sg1455
g0
(g404
g2
Ntp1471
Rp1472
(dp1473
g11
I00
sg19
I01
sg37
F-1.5610227
sg20
I00
sbsg1459
g0
(g404
g2
Ntp1474
Rp1475
(dp1476
g11
I00
sg19
I01
sg37
F10.0
sg20
I00
sbsg1463
g0
(g404
g2
Ntp1477
Rp1478
(dp1479
g11
I00
sg19
I01
sg37
F11.977461
sg20
I00
sbsg38
(lp1480
g1455
ag1459
ag1463
asbag0
(g28
g2
Ntp1481
Rp1482
(dp1483
g11
I00
sg19
I01
sg20
I00
sg1455
g0
(g404
g2
Ntp1484
Rp1485
(dp1486
g11
I00
sg19
I01
sg37
F-1.075824
sg20
I00
sbsg1459
g0
(g404
g2
Ntp1487
Rp1488
(dp1489
g11
I00
sg19
I01
sg37
F6.25
sg20
I00
sbsg1463
g0
(g404
g2
Ntp1490
Rp1491
(dp1492
g11
I00
sg19
I01
sg37
F9.109694
sg20
I00
sbsg38
(lp1493
g1455
ag1459
ag1463
asbatp1494
Rp1495
(dp1496
g11
I00
sg19
I01
sg20
I00
sg21
I1
sbsg20
I00
sg40
I23
sg69
S'/cvmfs/cms.cern.ch/slc7_amd64_gcc820/cms/cmssw-patch/CMSSW_10_6_8_patch1/python/CalibCalorimetry/HcalPlugins/HcalTimeSlew_cff.py'
p1497
sg1339
g0
(g164
g2
Ntp1498
Rp1499
(dp1500
g11
I00
sg19
I01
sg37
S'HBHE'
p1501
sg20
I00
sbsg331
g1332
sg46
g1332
sbssg390
g381
sg563
g565
sS'source'
p1502
g381
sS'CastorDbProducer'
p1503
g0
(g392
g2
Ntp1504
Rp1505
(dp1506
g38
(lp1507
g1339
asg11
I00
sg1339
g0
(g164
g2
Ntp1508
Rp1509
(dp1510
g11
I00
sg19
I01
sg37
g279
sg20
I00
sbsg20
I00
sg40
I56
sg69
g70
sg331
g1503
sg46
g1503
sbsg332
g269
sS'_Process__vpsets'
p1511
(dp1512
sS'_Process__name'
p1513
S'Ana'
p1514
sg1332
g1334
sS'es_prefer_hcalHardcode'
p1515
g0
(cFWCore.ParameterSet.Modules
ESPrefer
p1516
g2
Ntp1517
Rp1518
(dp1519
g38
(lp1520
sg11
I00
sg20
I00
sS'_targetLabel'
p1521
g616
sg40
I92
sg69
g70
sg331
g1515
sg46
g835
sbsS'_Process__subProcesses'
p1522
(lp1523
sS'_Process__switchproducers'
p1524
(dp1525
sS'_cloneToObjectDict'
p1526
(dp1527
I139943162011536
g258
sI139943162353040
g515
sI139943162353104
g587
sI139943161968144
g0
(g392
g2
Ntp1528
Rp1529
(dp1530
g38
(lp1531
S'PreFilter'
p1532
ag398
aS'NSigmaInside'
p1533
asg11
I00
sg20
I00
sg69
g70
sg398
g0
(g164
g2
Ntp1534
Rp1535
(dp1536
g11
I00
sg19
I01
sg37
S'StandardMatcher'
p1537
sg20
I00
sbsg1532
g0
(g33
g2
Ntp1538
Rp1539
(dp1540
g11
I00
sg19
I01
sg37
I00
sg20
I00
sbsg40
I56
sg1533
g0
(g404
g2
Ntp1541
Rp1542
(dp1543
g11
I00
sg19
I01
sg37
F3.0
sg20
I00
sbsg331
S'SiStripRecHitMatcherESProducer'
p1544
sg46
g1544
sbsI139943161968272
g0
(g392
g2
Ntp1545
Rp1546
(dp1547
g38
(lp1548
sg11
I00
sg20
I00
sg40
I56
sg69
g70
sg331
S'sistripconn'
p1549
sg46
S'SiStripConnectivity'
p1550
sbsI139943161882768
g619
sI139943161968848
g0
(g392
g2
Ntp1551
Rp1552
(dp1553
g38
(lp1554
S'siPixelQualityLabel'
p1555
aS'ListOfRecordToMerge'
p1556
asg11
I00
sg20
I01
sg40
I56
sg1555
g0
(g164
g2
Ntp1557
Rp1558
(dp1559
g11
I00
sg19
I01
sg37
g279
sg20
I00
sbsg69
g70
sg1556
g0
(g1064
g14
(lp1560
g0
(g28
g2
Ntp1561
Rp1562
(dp1563
g11
I00
sg19
I01
sg20
I00
sg483
g0
(g164
g2
Ntp1564
Rp1565
(dp1566
g11
I00
sg19
I01
sg37
S'SiPixelQualityFromDbRcd'
p1567
sg20
I00
sbsS'tag'
p1568
g0
(g164
g2
Ntp1569
Rp1570
(dp1571
g11
I00
sg19
I01
sg37
g279
sg20
I00
sbsg38
(lp1572
g483
ag1568
asbag0
(g28
g2
Ntp1573
Rp1574
(dp1575
g11
I00
sg19
I01
sg20
I00
sg483
g0
(g164
g2
Ntp1576
Rp1577
(dp1578
g11
I00
sg19
I01
sg37
S'SiPixelDetVOffRcd'
p1579
sg20
I00
sbsg1568
g0
(g164
g2
Ntp1580
Rp1581
(dp1582
g11
I00
sg19
I01
sg37
g279
sg20
I00
sbsg38
(lp1583
g483
ag1568
asbatp1584
Rp1585
(dp1586
g11
I00
sg19
I01
sg20
I00
sg21
I1
sbsg331
S'siPixelQualityESProducer'
p1587
sg46
S'SiPixelQualityESProducer'
p1588
sbsI139943162280592
g558
sI139943161924624
g0
(g392
g2
Ntp1589
Rp1590
(dp1591
g38
(lp1592
g473
aS'LorentzAngleDeconvMode'
p1593
aS'LorentzAnglePeakMode'
p1594
asg11
I00
sg20
I00
sg40
I56
sg69
g70
sg473
g0
(g28
g2
Ntp1595
Rp1596
(dp1597
g11
I00
sg19
I01
sg20
I00
sg479
g0
(g164
g2
Ntp1598
Rp1599
(dp1600
g11
I00
sg19
I00
sg37
g279
sg20
I00
sbsg483
g0
(g164
g2
Ntp1601
Rp1602
(dp1603
g11
I00
sg19
I01
sg37
g487
sg20
I00
sbsg38
(lp1604
g483
ag479
asbsg331
S'siStripLorentzAngleDepESProducer'
p1605
sg1594
g0
(g28
g2
Ntp1606
Rp1607
(dp1608
g11
I00
sg19
I01
sg20
I00
sg479
g0
(g164
g2
Ntp1609
Rp1610
(dp1611
g11
I00
sg19
I00
sg37
g495
sg20
I00
sbsg483
g0
(g164
g2
Ntp1612
Rp1613
(dp1614
g11
I00
sg19
I01
sg37
S'SiStripLorentzAngleRcd'
p1615
sg20
I00
sbsg38
(lp1616
g483
ag479
asbsg46
S'SiStripLorentzAngleDepESProducer'
p1617
sg1593
g0
(g28
g2
Ntp1618
Rp1619
(dp1620
g11
I00
sg19
I01
sg20
I00
sg479
g0
(g164
g2
Ntp1621
Rp1622
(dp1623
g11
I00
sg19
I00
sg37
g507
sg20
I00
sbsg483
g0
(g164
g2
Ntp1624
Rp1625
(dp1626
g11
I00
sg19
I01
sg37
g1615
sg20
I00
sbsg38
(lp1627
g483
ag479
asbsbsI139943161883920
g1518
sI139943162280272
g574
sI139943162011024
g269
sI139943162280144
g565
sI139943161925328
g470
sI139943162036368
g603
sI139943161966672
g541
sI139943161970064
g0
(g392
g2
Ntp1628
Rp1629
(dp1630
g38
(lp1631
g1339
aS'PrintDebugOutput'
p1632
aS'ThresholdForReducedGranularity'
p1633
aS'UseEmptyRunInfo'
p1634
aS'ReduceGranularity'
p1635
ag1556
asg11
I00
sg1339
g0
(g164
g2
Ntp1636
Rp1637
(dp1638
g11
I00
sg19
I01
sg37
g279
sg20
I00
sbsg20
I01
sg40
I56
sg69
g70
sg1633
g0
(g404
g2
Ntp1639
Rp1640
(dp1641
g11
I00
sg19
I01
sg37
F0.3
sg20
I00
sbsg331
S'siStripQualityESProducer'
p1642
sg1634
g0
(g33
g2
Ntp1643
Rp1644
(dp1645
g11
I00
sg19
I01
sg37
I00
sg20
I00
sbsg1635
g0
(g33
g2
Ntp1646
Rp1647
(dp1648
g11
I00
sg19
I01
sg37
I00
sg20
I00
sbsg1556
g0
(g1064
g14
(lp1649
g0
(g28
g2
Ntp1650
Rp1651
(dp1652
g11
I00
sg19
I01
sg20
I00
sg483
g0
(g164
g2
Ntp1653
Rp1654
(dp1655
g11
I00
sg19
I01
sg37
S'SiStripDetVOffRcd'
p1656
sg20
I00
sbsg1568
g0
(g164
g2
Ntp1657
Rp1658
(dp1659
g11
I00
sg19
I01
sg37
g279
sg20
I00
sbsg38
(lp1660
g483
ag1568
asbag0
(g28
g2
Ntp1661
Rp1662
(dp1663
g11
I00
sg19
I01
sg20
I00
sg483
g0
(g164
g2
Ntp1664
Rp1665
(dp1666
g11
I00
sg19
I01
sg37
S'SiStripDetCablingRcd'
p1667
sg20
I00
sbsg1568
g0
(g164
g2
Ntp1668
Rp1669
(dp1670
g11
I00
sg19
I01
sg37
g279
sg20
I00
sbsg38
(lp1671
g483
ag1568
asbag0
(g28
g2
Ntp1672
Rp1673
(dp1674
g11
I00
sg19
I01
sg20
I00
sg483
g0
(g164
g2
Ntp1675
Rp1676
(dp1677
g11
I00
sg19
I01
sg37
S'RunInfoRcd'
p1678
sg20
I00
sbsg1568
g0
(g164
g2
Ntp1679
Rp1680
(dp1681
g11
I00
sg19
I01
sg37
g279
sg20
I00
sbsg38
(lp1682
g483
ag1568
asbag0
(g28
g2
Ntp1683
Rp1684
(dp1685
g11
I00
sg19
I01
sg20
I00
sg483
g0
(g164
g2
Ntp1686
Rp1687
(dp1688
g11
I00
sg19
I01
sg37
S'SiStripBadChannelRcd'
p1689
sg20
I00
sbsg1568
g0
(g164
g2
Ntp1690
Rp1691
(dp1692
g11
I00
sg19
I01
sg37
g279
sg20
I00
sbsg38
(lp1693
g483
ag1568
asbag0
(g28
g2
Ntp1694
Rp1695
(dp1696
g11
I00
sg19
I01
sg20
I00
sg483
g0
(g164
g2
Ntp1697
Rp1698
(dp1699
g11
I00
sg19
I01
sg37
S'SiStripBadFiberRcd'
p1700
sg20
I00
sbsg1568
g0
(g164
g2
Ntp1701
Rp1702
(dp1703
g11
I00
sg19
I01
sg37
g279
sg20
I00
sbsg38
(lp1704
g483
ag1568
asbag0
(g28
g2
Ntp1705
Rp1706
(dp1707
g11
I00
sg19
I01
sg20
I00
sg483
g0
(g164
g2
Ntp1708
Rp1709
(dp1710
g11
I00
sg19
I01
sg37
S'SiStripBadModuleRcd'
p1711
sg20
I00
sbsg1568
g0
(g164
g2
Ntp1712
Rp1713
(dp1714
g11
I00
sg19
I01
sg37
g279
sg20
I00
sbsg38
(lp1715
g483
ag1568
asbag0
(g28
g2
Ntp1716
Rp1717
(dp1718
g11
I00
sg19
I01
sg20
I00
sg483
g0
(g164
g2
Ntp1719
Rp1720
(dp1721
g11
I00
sg19
I01
sg37
S'SiStripBadStripRcd'
p1722
sg20
I00
sbsg1568
g0
(g164
g2
Ntp1723
Rp1724
(dp1725
g11
I00
sg19
I01
sg37
g279
sg20
I00
sbsg38
(lp1726
g483
ag1568
asbatp1727
Rp1728
(dp1729
g11
I00
sg19
I01
sg20
I00
sg21
I1
sbsg46
S'SiStripQualityESProducer'
p1730
sg1632
g0
(g33
g2
Ntp1731
Rp1732
(dp1733
g11
I00
sg19
I01
sg37
I00
sg20
I00
sbsbsI139943161966800
g394
sI139943162315088
g1260
sI139943161923728
g0
(g392
g2
Ntp1734
Rp1735
(dp1736
g38
(lp1737
S'printDebug'
p1738
ag1339
aS'APVGain'
p1739
aS'AutomaticNormalization'
p1740
asg11
I00
sg1339
g0
(g164
g2
Ntp1741
Rp1742
(dp1743
g11
I00
sg19
I01
sg37
g279
sg20
I00
sbsg20
I00
sg1740
g0
(g33
g2
Ntp1744
Rp1745
(dp1746
g11
I00
sg19
I01
sg37
I00
sg20
I00
sbsg40
I56
sg1738
g0
(g33
g2
Ntp1747
Rp1748
(dp1749
g11
I00
sg19
I00
sg37
I00
sg20
I00
sbsg69
g70
sg1739
g0
(g1064
g14
(lp1750
g0
(g28
g2
Ntp1751
Rp1752
(dp1753
g11
I00
sg19
I01
sg20
I00
sS'Label'
p1754
g0
(g164
g2
Ntp1755
Rp1756
(dp1757
g11
I00
sg19
I00
sg37
g279
sg20
I00
sbsS'Record'
p1758
g0
(g164
g2
Ntp1759
Rp1760
(dp1761
g11
I00
sg19
I01
sg37
S'SiStripApvGainRcd'
p1762
sg20
I00
sbsS'NormalizationFactor'
p1763
g0
(g404
g2
Ntp1764
Rp1765
(dp1766
g11
I00
sg19
I00
sg37
F1.0
sg20
I00
sbsg38
(lp1767
g1758
ag1763
ag1754
asbag0
(g28
g2
Ntp1768
Rp1769
(dp1770
g11
I00
sg19
I01
sg20
I00
sg1754
g0
(g164
g2
Ntp1771
Rp1772
(dp1773
g11
I00
sg19
I00
sg37
g279
sg20
I00
sbsg1758
g0
(g164
g2
Ntp1774
Rp1775
(dp1776
g11
I00
sg19
I01
sg37
S'SiStripApvGain2Rcd'
p1777
sg20
I00
sbsg1763
g0
(g404
g2
Ntp1778
Rp1779
(dp1780
g11
I00
sg19
I00
sg37
F1.0
sg20
I00
sbsg38
(lp1781
g1758
ag1763
ag1754
asbatp1782
Rp1783
(dp1784
g11
I00
sg19
I01
sg20
I00
sg21
I1
sbsg331
S'siStripGainESProducer'
p1785
sg46
S'SiStripGainESProducer'
p1786
sbsI139943161922128
g1505
sI139943162352336
g1334
ssg1785
g1735
sg255
g258
sg1549
g1546
sS'_Process__esprefers'
p1787
(dp1788
g1515
g1518
ssg1544
g1529
sS'_Process__schedule'
p1789
Nsg1642
g1629
sS'_Process__outputmodules'
p1790
(dp1791
sS'_Process__analyzers'
p1792
(dp1793
g332
g269
ssS'_Process__InExtendCall'
p1794
I00
sg1605
g1590
sS'_Process__modifiers'
p1795
(tsS'_Process__producers'
p1796
(dp1797
sg1587
g1552
sg1258
g1260
sS'_Process__filters'
p1798
(dp1799
sg616
g619
sS'_Process__looper'
p1800
NsS'_Process__endpaths'
p1801
g0
(cFWCore.ParameterSet.DictTypes
SortedKeysDict
p1802
c__builtin__
dict
p1803
(dp1804
tp1805
Rp1806
(dp1807
S'list'
p1808
(lp1809
sbsS'_Process__esproducers'
p1810
(dp1811
g1605
g1590
sg539
g541
sg1544
g1529
sg1587
g1552
sg585
g587
sg1785
g1735
sg1549
g1546
sg391
g394
sg1503
g1505
sg556
g558
sg468
g470
sg1642
g1629
ssS'_Process__tasks'
p1812
(dp1813
sS'_Process__paths'
p1814
g0
(g1802
g1803
(dp1815
g600
g603
stp1816
Rp1817
(dp1818
g1808
(lp1819
g600
asbsS'_Process__partialschedules'
p1820
(dp1821
sg572
g574
sS'_Process__isStrict'
p1822
I00
sb.